#include <math.h>
#include <stdio.h>
#include <stdlib.h>
#include <string.h>
#define LEN 100
#define ASCII 100
#define MAX_N 100
#define MAX_M 100
#define MAX 100
#define ASC 100
#define null 0
#define Len 100
#define SUM 100
#define NUMBER 100
#define SIZE 100
#define Y 100
#define MAXN 100
#define MAXSIZE 100
#define maxrow 100
#define maxcol 100
#define mx 100
#define NUM 100
#define ROW 100
#define COL 100
#define SIZEE 100
#define MAX_LEN 100
#define LIU 100
#define maxsize 100
#define NUM 100
#define NO 100
#define Null 0
#define ID_DIGITS 100
#define INT_MAX 100
#define INT_MIN 100
#define FALSE 0
#define TRUE 1
#define max 100
#define hang 100
#define lie 100
#define row 100
#define col 100
#define number 100
#define M 100


int main(void)
{
        char *exp=(char*)malloc(sizeof(char)*MAX_LEN);
        int *res=(int*)malloc(sizeof(int)*MAX_LEN);
        while(gets(exp))
        {
                int cur=0,pt=0,len=strlen(exp);
                for(int i=0;i!=MAX_LEN;++i)
                        res[i]=-1;
                for(;cur!=len;++cur)
                {
                        if(exp[cur]!='('&&exp[cur]!=')')
                                res[cur]=0;
                        if(exp[cur]==')')
                        {
                                for(pt=cur-1;pt>=0;--pt)
                                {
                                        if(exp[pt]=='('&&res[pt])
                                        {
                                                res[pt]=0;
                                                res[cur]=0;
                                                break;
                                        }
                                }
                        }
                }
                puts(exp);
                for(int i=0;i!=len;++i)
                {
                        if(exp[i]=='('&&res[i]==-1)
                                res[i]=1;
                        else if(exp[i]==')'&&res[i]==-1)
                                res[i]=2;
                        switch(res[i])
                        {
                        case 0:
                                putchar(' ');
                                break;
                        case 1:
                                putchar('$');
                                break;
                        case 2:
                                putchar('?');
                                break;
                        }
                }
                printf("\n");
        }
        return 0;
}