; ModuleID = '17/1251.c'
source_filename = "17/1251.c"
target datalayout = "e-m:e-p270:32:32-p271:32:32-p272:64:64-i64:64-f80:128-n8:16:32:64-S128"
target triple = "x86_64-pc-linux-gnu"

@.str = private unnamed_addr constant [2 x i8] c"\0A\00", align 1

; Function Attrs: noinline nounwind uwtable
define dso_local i32 @main() #0 {
  %1 = alloca i32, align 4
  %2 = alloca i8*, align 8
  %3 = alloca i32*, align 8
  %4 = alloca i32, align 4
  %5 = alloca i32, align 4
  %6 = alloca i32, align 4
  %7 = alloca i32, align 4
  %8 = alloca i32, align 4
  store i32 0, i32* %1, align 4
  %9 = call noalias i8* @malloc(i64 100) #4
  store i8* %9, i8** %2, align 8
  %10 = call noalias i8* @malloc(i64 400) #4
  %11 = bitcast i8* %10 to i32*
  store i32* %11, i32** %3, align 8
  br label %12

12:                                               ; preds = %168, %0
  %13 = load i8*, i8** %2, align 8
  %14 = call i32 (i8*, ...) bitcast (i32 (...)* @gets to i32 (i8*, ...)*)(i8* %13)
  %15 = icmp ne i32 %14, 0
  br i1 %15, label %16, label %170

16:                                               ; preds = %12
  store i32 0, i32* %4, align 4
  store i32 0, i32* %5, align 4
  %17 = load i8*, i8** %2, align 8
  %18 = call i64 @strlen(i8* %17) #5
  %19 = trunc i64 %18 to i32
  store i32 %19, i32* %6, align 4
  store i32 0, i32* %7, align 4
  br label %20

20:                                               ; preds = %28, %16
  %21 = load i32, i32* %7, align 4
  %22 = icmp ne i32 %21, 100
  br i1 %22, label %23, label %31

23:                                               ; preds = %20
  %24 = load i32*, i32** %3, align 8
  %25 = load i32, i32* %7, align 4
  %26 = sext i32 %25 to i64
  %27 = getelementptr inbounds i32, i32* %24, i64 %26
  store i32 -1, i32* %27, align 4
  br label %28

28:                                               ; preds = %23
  %29 = load i32, i32* %7, align 4
  %30 = add nsw i32 %29, 1
  store i32 %30, i32* %7, align 4
  br label %20

31:                                               ; preds = %20
  br label %32

32:                                               ; preds = %101, %31
  %33 = load i32, i32* %4, align 4
  %34 = load i32, i32* %6, align 4
  %35 = icmp ne i32 %33, %34
  br i1 %35, label %36, label %104

36:                                               ; preds = %32
  %37 = load i8*, i8** %2, align 8
  %38 = load i32, i32* %4, align 4
  %39 = sext i32 %38 to i64
  %40 = getelementptr inbounds i8, i8* %37, i64 %39
  %41 = load i8, i8* %40, align 1
  %42 = sext i8 %41 to i32
  %43 = icmp ne i32 %42, 40
  br i1 %43, label %44, label %57

44:                                               ; preds = %36
  %45 = load i8*, i8** %2, align 8
  %46 = load i32, i32* %4, align 4
  %47 = sext i32 %46 to i64
  %48 = getelementptr inbounds i8, i8* %45, i64 %47
  %49 = load i8, i8* %48, align 1
  %50 = sext i8 %49 to i32
  %51 = icmp ne i32 %50, 41
  br i1 %51, label %52, label %57

52:                                               ; preds = %44
  %53 = load i32*, i32** %3, align 8
  %54 = load i32, i32* %4, align 4
  %55 = sext i32 %54 to i64
  %56 = getelementptr inbounds i32, i32* %53, i64 %55
  store i32 0, i32* %56, align 4
  br label %57

57:                                               ; preds = %52, %44, %36
  %58 = load i8*, i8** %2, align 8
  %59 = load i32, i32* %4, align 4
  %60 = sext i32 %59 to i64
  %61 = getelementptr inbounds i8, i8* %58, i64 %60
  %62 = load i8, i8* %61, align 1
  %63 = sext i8 %62 to i32
  %64 = icmp eq i32 %63, 41
  br i1 %64, label %65, label %100

65:                                               ; preds = %57
  %66 = load i32, i32* %4, align 4
  %67 = sub nsw i32 %66, 1
  store i32 %67, i32* %5, align 4
  br label %68

68:                                               ; preds = %96, %65
  %69 = load i32, i32* %5, align 4
  %70 = icmp sge i32 %69, 0
  br i1 %70, label %71, label %99

71:                                               ; preds = %68
  %72 = load i8*, i8** %2, align 8
  %73 = load i32, i32* %5, align 4
  %74 = sext i32 %73 to i64
  %75 = getelementptr inbounds i8, i8* %72, i64 %74
  %76 = load i8, i8* %75, align 1
  %77 = sext i8 %76 to i32
  %78 = icmp eq i32 %77, 40
  br i1 %78, label %79, label %95

79:                                               ; preds = %71
  %80 = load i32*, i32** %3, align 8
  %81 = load i32, i32* %5, align 4
  %82 = sext i32 %81 to i64
  %83 = getelementptr inbounds i32, i32* %80, i64 %82
  %84 = load i32, i32* %83, align 4
  %85 = icmp ne i32 %84, 0
  br i1 %85, label %86, label %95

86:                                               ; preds = %79
  %87 = load i32*, i32** %3, align 8
  %88 = load i32, i32* %5, align 4
  %89 = sext i32 %88 to i64
  %90 = getelementptr inbounds i32, i32* %87, i64 %89
  store i32 0, i32* %90, align 4
  %91 = load i32*, i32** %3, align 8
  %92 = load i32, i32* %4, align 4
  %93 = sext i32 %92 to i64
  %94 = getelementptr inbounds i32, i32* %91, i64 %93
  store i32 0, i32* %94, align 4
  br label %99

95:                                               ; preds = %79, %71
  br label %96

96:                                               ; preds = %95
  %97 = load i32, i32* %5, align 4
  %98 = add nsw i32 %97, -1
  store i32 %98, i32* %5, align 4
  br label %68

99:                                               ; preds = %86, %68
  br label %100

100:                                              ; preds = %99, %57
  br label %101

101:                                              ; preds = %100
  %102 = load i32, i32* %4, align 4
  %103 = add nsw i32 %102, 1
  store i32 %103, i32* %4, align 4
  br label %32

104:                                              ; preds = %32
  %105 = load i8*, i8** %2, align 8
  %106 = call i32 @puts(i8* %105)
  store i32 0, i32* %8, align 4
  br label %107

107:                                              ; preds = %165, %104
  %108 = load i32, i32* %8, align 4
  %109 = load i32, i32* %6, align 4
  %110 = icmp ne i32 %108, %109
  br i1 %110, label %111, label %168

111:                                              ; preds = %107
  %112 = load i8*, i8** %2, align 8
  %113 = load i32, i32* %8, align 4
  %114 = sext i32 %113 to i64
  %115 = getelementptr inbounds i8, i8* %112, i64 %114
  %116 = load i8, i8* %115, align 1
  %117 = sext i8 %116 to i32
  %118 = icmp eq i32 %117, 40
  br i1 %118, label %119, label %131

119:                                              ; preds = %111
  %120 = load i32*, i32** %3, align 8
  %121 = load i32, i32* %8, align 4
  %122 = sext i32 %121 to i64
  %123 = getelementptr inbounds i32, i32* %120, i64 %122
  %124 = load i32, i32* %123, align 4
  %125 = icmp eq i32 %124, -1
  br i1 %125, label %126, label %131

126:                                              ; preds = %119
  %127 = load i32*, i32** %3, align 8
  %128 = load i32, i32* %8, align 4
  %129 = sext i32 %128 to i64
  %130 = getelementptr inbounds i32, i32* %127, i64 %129
  store i32 1, i32* %130, align 4
  br label %152

131:                                              ; preds = %119, %111
  %132 = load i8*, i8** %2, align 8
  %133 = load i32, i32* %8, align 4
  %134 = sext i32 %133 to i64
  %135 = getelementptr inbounds i8, i8* %132, i64 %134
  %136 = load i8, i8* %135, align 1
  %137 = sext i8 %136 to i32
  %138 = icmp eq i32 %137, 41
  br i1 %138, label %139, label %151

139:                                              ; preds = %131
  %140 = load i32*, i32** %3, align 8
  %141 = load i32, i32* %8, align 4
  %142 = sext i32 %141 to i64
  %143 = getelementptr inbounds i32, i32* %140, i64 %142
  %144 = load i32, i32* %143, align 4
  %145 = icmp eq i32 %144, -1
  br i1 %145, label %146, label %151

146:                                              ; preds = %139
  %147 = load i32*, i32** %3, align 8
  %148 = load i32, i32* %8, align 4
  %149 = sext i32 %148 to i64
  %150 = getelementptr inbounds i32, i32* %147, i64 %149
  store i32 2, i32* %150, align 4
  br label %151

151:                                              ; preds = %146, %139, %131
  br label %152

152:                                              ; preds = %151, %126
  %153 = load i32*, i32** %3, align 8
  %154 = load i32, i32* %8, align 4
  %155 = sext i32 %154 to i64
  %156 = getelementptr inbounds i32, i32* %153, i64 %155
  %157 = load i32, i32* %156, align 4
  switch i32 %157, label %164 [
    i32 0, label %158
    i32 1, label %160
    i32 2, label %162
  ]

158:                                              ; preds = %152
  %159 = call i32 @putchar(i32 32)
  br label %164

160:                                              ; preds = %152
  %161 = call i32 @putchar(i32 36)
  br label %164

162:                                              ; preds = %152
  %163 = call i32 @putchar(i32 63)
  br label %164

164:                                              ; preds = %152, %162, %160, %158
  br label %165

165:                                              ; preds = %164
  %166 = load i32, i32* %8, align 4
  %167 = add nsw i32 %166, 1
  store i32 %167, i32* %8, align 4
  br label %107

168:                                              ; preds = %107
  %169 = call i32 (i8*, ...) @printf(i8* getelementptr inbounds ([2 x i8], [2 x i8]* @.str, i64 0, i64 0))
  br label %12

170:                                              ; preds = %12
  ret i32 0
}

; Function Attrs: nounwind
declare dso_local noalias i8* @malloc(i64) #1

declare dso_local i32 @gets(...) #2

; Function Attrs: nounwind readonly
declare dso_local i64 @strlen(i8*) #3

declare dso_local i32 @puts(i8*) #2

declare dso_local i32 @putchar(i32) #2

declare dso_local i32 @printf(i8*, ...) #2


!llvm.module.flags = !{!0}
!llvm.ident = !{!1}

!0 = !{i32 1, !"wchar_size", i32 4}
!1 = !{!"clang version 10.0.0-4ubuntu1 "}
